; Function Attrs: null_pointer_is_valid sspstrong uwtable
define internal noundef i32 @dissect_kademlia2_peer(ptr noundef %0, ptr noundef readonly captures(none) %1, i32 noundef %2, ptr noundef %3) #0 {
  %5 = load i32, ptr @hf_kademlia_peer, align 4
  %6 = tail call ptr @proto_tree_add_item(ptr noundef %3, i32 noundef %5, ptr noundef %0, i32 noundef %2, i32 noundef 25, i32 noundef 0)
  %7 = load i32, ptr @ett_overnet_peer, align 4
  %8 = tail call ptr @proto_item_add_subtree(ptr noundef %6, i32 noundef %7)
  %9 = tail call fastcc i32 @dissect_kademlia_hash(ptr noundef %0, ptr noundef %1, i32 noundef %2, ptr noundef %8, ptr noundef nonnull @hf_kademlia_peer_id)
  %10 = load i32, ptr @hf_kademlia_ip, align 4
  %11 = tail call ptr @proto_tree_add_item(ptr noundef %8, i32 noundef %10, ptr noundef %0, i32 noundef %9, i32 noundef 4, i32 noundef -2147483648)
  %12 = add i32 %9, 4
  %13 = load i32, ptr @hf_kademlia_udp_port, align 4
  %14 = tail call ptr @proto_tree_add_item(ptr noundef %8, i32 noundef %13, ptr noundef %0, i32 noundef %12, i32 noundef 2, i32 noundef -2147483648)
  %15 = add i32 %9, 6
  %16 = load i32, ptr @hf_kademlia_tcp_port, align 4
  %17 = tail call ptr @proto_tree_add_item(ptr noundef %8, i32 noundef %16, ptr noundef %0, i32 noundef %15, i32 noundef 2, i32 noundef -2147483648)
  %18 = add i32 %9, 8
  %19 = load i32, ptr @hf_kademlia_peertype, align 4
  %20 = tail call ptr @proto_tree_add_item(ptr noundef %8, i32 noundef %19, ptr noundef %0, i32 noundef %18, i32 noundef 1, i32 noundef 0)
  %21 = add i32 %9, 9
  ret i32 %21
}